target datalayout = "e-m:e-p270:32:32-p271:32:32-p272:64:64-i64:64-i128:128-f80:128-n8:16:32:64-S128"
target triple = "x86_64-pc-linux-gnu"

; Function Attrs: nounwind uwtable
define ptr @PGTYPESdecimal_new() #0 {
  %1 = alloca ptr, align 8
  %2 = alloca ptr, align 8
  %3 = alloca i32, align 4
  call void @llvm.lifetime.start.p0(i64 8, ptr %2) #8
  %4 = call ptr @pgtypes_alloc(i64 noundef 52)
  store ptr %4, ptr %2, align 8
  %5 = icmp eq ptr %4, null
  br i1 %5, label %6, label %7

6:                                                ; preds = %0
  store ptr null, ptr %1, align 8
  store i32 1, ptr %3, align 4
  br label %10

7:                                                ; preds = %0
  %8 = load ptr, ptr %2, align 8
  call void @llvm.memset.p0.i64(ptr align 4 %8, i8 0, i64 52, i1 false)
  %9 = load ptr, ptr %2, align 8
  store ptr %9, ptr %1, align 8
  store i32 1, ptr %3, align 4
  br label %10

10:                                               ; preds = %7, %6
  call void @llvm.lifetime.end.p0(i64 8, ptr %2) #8
  %11 = load ptr, ptr %1, align 8
  ret ptr %11
}