; Function Attrs: nounwind uwtable
define ptr @PGTYPESdecimal_new() local_unnamed_addr #0 {
  %1 = tail call ptr @pgtypes_alloc(i64 noundef 52) #14
  %2 = icmp eq ptr %1, null
  br i1 %2, label %4, label %3

3:                                                ; preds = %0
  tail call void @llvm.memset.p0.i64(ptr noundef nonnull align 4 dereferenceable(52) %1, i8 0, i64 52, i1 false)
  br label %4

4:                                                ; preds = %0, %3
  ret ptr %1
}